; Function Attrs: nounwind uwtable
define hidden void @_ir_MERGE_LIST(ptr nocapture noundef %0, i32 noundef %1) local_unnamed_addr #0 {
  %.not = icmp eq i32 %1, 0
  br i1 %.not, label %_ir_BEGIN.exit, label %.preheader

.preheader:                                       ; preds = %2
  %3 = load ptr, ptr %0, align 8
  br label %4

4:                                                ; preds = %.preheader, %4
  %.025 = phi i32 [ %8, %4 ], [ 0, %.preheader ]
  %.0 = phi i32 [ %7, %4 ], [ %1, %.preheader ]
  %5 = sext i32 %.0 to i64
  %6 = getelementptr inbounds %struct._ir_insn, ptr %3, i64 %5, i32 1
  %7 = load i32, ptr %6, align 8
  %8 = add i32 %.025, 1
  %.not29 = icmp eq i32 %7, 0
  br i1 %.not29, label %9, label %4

9:                                                ; preds = %4
  %10 = icmp eq i32 %.025, 0
  br i1 %10, label %11, label %55

11:                                               ; preds = %9
  %12 = sext i32 %1 to i64
  %13 = getelementptr inbounds %struct._ir_insn, ptr %3, i64 %12, i32 1
  store i32 0, ptr %13, align 8
  %14 = add nsw i32 %1, 1
  %15 = getelementptr inbounds i8, ptr %0, i64 8
  %16 = load i32, ptr %15, align 8
  %17 = icmp eq i32 %14, %16
  %.pre.i.i.pre11.i = load ptr, ptr %0, align 8
  br i1 %17, label %18, label %26

18:                                               ; preds = %11
  %19 = getelementptr inbounds %struct._ir_insn, ptr %.pre.i.i.pre11.i, i64 %12
  %20 = load i8, ptr %19, align 8
  %21 = icmp eq i8 %20, 98
  br i1 %21, label %22, label %26

22:                                               ; preds = %18
  %23 = getelementptr inbounds i8, ptr %19, i64 4
  %24 = load i32, ptr %23, align 4
  %25 = getelementptr inbounds i8, ptr %0, i64 248
  store i32 %24, ptr %25, align 8
  store i32 %1, ptr %15, align 8
  br label %_ir_BEGIN.exit

26:                                               ; preds = %18, %11
  %27 = phi i32 [ %14, %18 ], [ %16, %11 ]
  %28 = getelementptr inbounds i8, ptr %0, i64 12
  %29 = load i32, ptr %28, align 4
  %.not.i.i.i.i = icmp slt i32 %27, %29
  br i1 %.not.i.i.i.i, label %ir_emit1.exit.i, label %30

30:                                               ; preds = %26
  %31 = getelementptr inbounds i8, ptr %0, i64 20
  %32 = load i32, ptr %31, align 4
  %33 = icmp slt i32 %29, 4096
  %34 = shl nsw i32 %29, 1
  %35 = icmp ult i32 %29, 8192
  %36 = add nuw nsw i32 %29, 4096
  %spec.select.i.i.i.i.i = select i1 %35, i32 8192, i32 %36
  %.sink.i.i.i.i.i = select i1 %33, i32 %34, i32 %spec.select.i.i.i.i.i
  store i32 %.sink.i.i.i.i.i, ptr %28, align 4
  %37 = sext i32 %32 to i64
  %38 = sub nsw i64 0, %37
  %39 = getelementptr inbounds %struct._ir_insn, ptr %.pre.i.i.pre11.i, i64 %38
  %40 = add nsw i32 %32, %.sink.i.i.i.i.i
  %41 = sext i32 %40 to i64
  %42 = shl nsw i64 %41, 4
  %43 = tail call ptr @_erealloc(ptr noundef %39, i64 noundef %42) #24
  %44 = load i32, ptr %31, align 4
  %45 = sext i32 %44 to i64
  %46 = getelementptr inbounds %struct._ir_insn, ptr %43, i64 %45
  store ptr %46, ptr %0, align 8
  br label %ir_emit1.exit.i

ir_emit1.exit.i:                                  ; preds = %30, %26
  %47 = phi ptr [ %.pre.i.i.pre11.i, %26 ], [ %46, %30 ]
  %48 = add nsw i32 %27, 1
  store i32 %48, ptr %15, align 8
  %49 = sext i32 %27 to i64
  %50 = getelementptr inbounds %struct._ir_insn, ptr %47, i64 %49
  store i32 91, ptr %50, align 8
  %51 = getelementptr inbounds i8, ptr %50, i64 4
  store i32 %1, ptr %51, align 4
  %52 = getelementptr inbounds i8, ptr %50, i64 8
  store i32 0, ptr %52, align 8
  %53 = getelementptr inbounds i8, ptr %50, i64 12
  store i32 0, ptr %53, align 4
  %54 = getelementptr inbounds i8, ptr %0, i64 248
  store i32 %27, ptr %54, align 8
  br label %_ir_BEGIN.exit

55:                                               ; preds = %9
  %56 = getelementptr inbounds i8, ptr %0, i64 8
  %57 = load i32, ptr %56, align 8
  %58 = sdiv i32 %8, 4
  %59 = add i32 %57, %58
  %60 = getelementptr inbounds i8, ptr %0, i64 12
  %61 = load i32, ptr %60, align 4
  %.not22.i = icmp slt i32 %59, %61
  br i1 %.not22.i, label %._crit_edge.i32, label %.lr.ph.i

.lr.ph.i:                                         ; preds = %55
  %62 = getelementptr inbounds i8, ptr %0, i64 20
  %.pre29.i = load i32, ptr %62, align 4
  br label %63

63:                                               ; preds = %63, %.lr.ph.i
  %64 = phi i32 [ %.pre29.i, %.lr.ph.i ], [ %78, %63 ]
  %65 = phi ptr [ %3, %.lr.ph.i ], [ %80, %63 ]
  %66 = phi i32 [ %61, %.lr.ph.i ], [ %81, %63 ]
  %67 = icmp slt i32 %66, 4096
  %68 = shl nsw i32 %66, 1
  %69 = icmp ult i32 %66, 8192
  %70 = add nuw nsw i32 %66, 4096
  %spec.select.i.i = select i1 %69, i32 8192, i32 %70
  %.sink.i.i = select i1 %67, i32 %68, i32 %spec.select.i.i
  store i32 %.sink.i.i, ptr %60, align 4
  %71 = sext i32 %64 to i64
  %72 = sub nsw i64 0, %71
  %73 = getelementptr inbounds %struct._ir_insn, ptr %65, i64 %72
  %74 = add nsw i32 %.sink.i.i, %64
  %75 = sext i32 %74 to i64
  %76 = shl nsw i64 %75, 4
  %77 = tail call ptr @_erealloc(ptr noundef %73, i64 noundef %76) #24
  %78 = load i32, ptr %62, align 4
  %79 = sext i32 %78 to i64
  %80 = getelementptr inbounds %struct._ir_insn, ptr %77, i64 %79
  store ptr %80, ptr %0, align 8
  %81 = load i32, ptr %60, align 4
  %.not.i31 = icmp slt i32 %59, %81
  br i1 %.not.i31, label %._crit_edge.i32, label %63

._crit_edge.i32:                                  ; preds = %63, %55
  %82 = phi ptr [ %3, %55 ], [ %80, %63 ]
  %83 = add nsw i32 %59, 1
  store i32 %83, ptr %56, align 8
  %84 = sext i32 %57 to i64
  %85 = getelementptr inbounds %struct._ir_insn, ptr %82, i64 %84
  %86 = shl i32 %8, 16
  %87 = or disjoint i32 %86, 96
  store i32 %87, ptr %85, align 8
  %.not2123.i = icmp slt i32 %8, 0
  br i1 %.not2123.i, label %ir_emit_N.exit.thread, label %ir_emit_N.exit

ir_emit_N.exit.thread:                            ; preds = %._crit_edge.i32
  %88 = getelementptr inbounds i8, ptr %0, i64 248
  store i32 %57, ptr %88, align 8
  br label %.lr.ph.preheader

ir_emit_N.exit:                                   ; preds = %._crit_edge.i32
  %89 = or i32 %8, 3
  %90 = shl nsw i64 %84, 4
  %91 = or disjoint i64 %90, 4
  %scevgep.i = getelementptr i8, ptr %82, i64 %91
  %92 = zext nneg i32 %89 to i64
  %93 = shl nuw nsw i64 %92, 2
  tail call void @llvm.memset.p0.i64(ptr noundef nonnull align 4 dereferenceable(1) %scevgep.i, i8 0, i64 %93, i1 false)
  %94 = getelementptr inbounds i8, ptr %0, i64 248
  store i32 %57, ptr %94, align 8
  %.not3035 = icmp eq i32 %8, 0
  br i1 %.not3035, label %_ir_BEGIN.exit, label %.lr.ph.preheader

.lr.ph.preheader:                                 ; preds = %ir_emit_N.exit.thread, %ir_emit_N.exit
  %95 = phi ptr [ %88, %ir_emit_N.exit.thread ], [ %94, %ir_emit_N.exit ]
  br label %.lr.ph

.lr.ph:                                           ; preds = %.lr.ph.preheader, %.lr.ph
  %.137 = phi i32 [ %104, %.lr.ph ], [ %1, %.lr.ph.preheader ]
  %.12636 = phi i32 [ %105, %.lr.ph ], [ %8, %.lr.ph.preheader ]
  %96 = load ptr, ptr %0, align 8
  %97 = sext i32 %.137 to i64
  %98 = load i32, ptr %95, align 8
  %99 = sext i32 %98 to i64
  %100 = getelementptr inbounds %struct._ir_insn, ptr %96, i64 %99
  %101 = sext i32 %.12636 to i64
  %102 = getelementptr inbounds i32, ptr %100, i64 %101
  store i32 %.137, ptr %102, align 4
  %103 = getelementptr inbounds %struct._ir_insn, ptr %96, i64 %97, i32 1
  %104 = load i32, ptr %103, align 8
  store i32 0, ptr %103, align 8
  %105 = add i32 %.12636, -1
  %.not30 = icmp eq i32 %105, 0
  br i1 %.not30, label %_ir_BEGIN.exit, label %.lr.ph

_ir_BEGIN.exit:                                   ; preds = %.lr.ph, %ir_emit_N.exit, %ir_emit1.exit.i, %22, %2
  ret void
}